target datalayout = "e-m:e-p270:32:32-p271:32:32-p272:64:64-i64:64-i128:128-f80:128-n8:16:32:64-S128"
target triple = "x86_64-pc-linux-gnu"

%struct.jag_prec = type { i8, i32, i8, i32, i32, i32, double, i32, ptr, double }
%struct.acct_gather_data = type { i64, i64, i64, i64, i64 }

; Function Attrs: nounwind uwtable
define internal i32 @_init_tres(ptr noundef %0, ptr noundef %1) #0 {
  %3 = alloca ptr, align 8
  %4 = alloca ptr, align 8
  %5 = alloca i32, align 4
  store ptr %0, ptr %3, align 8
  store ptr %1, ptr %4, align 8
  call void @llvm.lifetime.start.p0(i64 4, ptr %5) #10
  store i32 0, ptr %5, align 4
  br label %6

6:                                                ; preds = %49, %2
  %7 = load i32, ptr %5, align 4
  %8 = load ptr, ptr %3, align 8
  %9 = getelementptr inbounds nuw %struct.jag_prec, ptr %8, i32 0, i32 7
  %10 = load i32, ptr %9, align 8
  %11 = icmp slt i32 %7, %10
  br i1 %11, label %13, label %12

12:                                               ; preds = %6
  call void @llvm.lifetime.end.p0(i64 4, ptr %5) #10
  br label %52

13:                                               ; preds = %6
  %14 = load ptr, ptr %3, align 8
  %15 = getelementptr inbounds nuw %struct.jag_prec, ptr %14, i32 0, i32 8
  %16 = load ptr, ptr %15, align 8
  %17 = load i32, ptr %5, align 4
  %18 = sext i32 %17 to i64
  %19 = getelementptr inbounds %struct.acct_gather_data, ptr %16, i64 %18
  %20 = getelementptr inbounds nuw %struct.acct_gather_data, ptr %19, i32 0, i32 0
  store i64 0, ptr %20, align 8
  %21 = load ptr, ptr %3, align 8
  %22 = getelementptr inbounds nuw %struct.jag_prec, ptr %21, i32 0, i32 8
  %23 = load ptr, ptr %22, align 8
  %24 = load i32, ptr %5, align 4
  %25 = sext i32 %24 to i64
  %26 = getelementptr inbounds %struct.acct_gather_data, ptr %23, i64 %25
  %27 = getelementptr inbounds nuw %struct.acct_gather_data, ptr %26, i32 0, i32 1
  store i64 -1, ptr %27, align 8
  %28 = load ptr, ptr %3, align 8
  %29 = getelementptr inbounds nuw %struct.jag_prec, ptr %28, i32 0, i32 8
  %30 = load ptr, ptr %29, align 8
  %31 = load i32, ptr %5, align 4
  %32 = sext i32 %31 to i64
  %33 = getelementptr inbounds %struct.acct_gather_data, ptr %30, i64 %32
  %34 = getelementptr inbounds nuw %struct.acct_gather_data, ptr %33, i32 0, i32 2
  store i64 -1, ptr %34, align 8
  %35 = load ptr, ptr %3, align 8
  %36 = getelementptr inbounds nuw %struct.jag_prec, ptr %35, i32 0, i32 8
  %37 = load ptr, ptr %36, align 8
  %38 = load i32, ptr %5, align 4
  %39 = sext i32 %38 to i64
  %40 = getelementptr inbounds %struct.acct_gather_data, ptr %37, i64 %39
  %41 = getelementptr inbounds nuw %struct.acct_gather_data, ptr %40, i32 0, i32 3
  store i64 -1, ptr %41, align 8
  %42 = load ptr, ptr %3, align 8
  %43 = getelementptr inbounds nuw %struct.jag_prec, ptr %42, i32 0, i32 8
  %44 = load ptr, ptr %43, align 8
  %45 = load i32, ptr %5, align 4
  %46 = sext i32 %45 to i64
  %47 = getelementptr inbounds %struct.acct_gather_data, ptr %44, i64 %46
  %48 = getelementptr inbounds nuw %struct.acct_gather_data, ptr %47, i32 0, i32 4
  store i64 -1, ptr %48, align 8
  br label %49

49:                                               ; preds = %13
  %50 = load i32, ptr %5, align 4
  %51 = add nsw i32 %50, 1
  store i32 %51, ptr %5, align 4
  br label %6, !llvm.loop !17

52:                                               ; preds = %12
  ret i32 0
}