; Function Attrs: nofree norecurse nosync nounwind memory(write, argmem: readwrite, inaccessiblemem: none) uwtable
define internal noundef i32 @_init_tres(ptr noundef readonly captures(none) %0, ptr readnone captures(none) %1) #7 {
  %3 = getelementptr inbounds nuw i8, ptr %0, i64 32
  %4 = load i32, ptr %3, align 8
  %5 = icmp sgt i32 %4, 0
  br i1 %5, label %.lr.ph, label %._crit_edge

.lr.ph:                                           ; preds = %2
  %6 = getelementptr inbounds nuw i8, ptr %0, i64 40
  br label %7

._crit_edge:                                      ; preds = %7, %2
  ret i32 0

7:                                                ; preds = %.lr.ph, %7
  %indvars.iv = phi i64 [ 0, %.lr.ph ], [ %indvars.iv.next, %7 ]
  %8 = load ptr, ptr %6, align 8
  %9 = getelementptr inbounds nuw %struct.acct_gather_data, ptr %8, i64 %indvars.iv
  store i64 0, ptr %9, align 8
  %10 = load ptr, ptr %6, align 8
  %11 = getelementptr inbounds nuw %struct.acct_gather_data, ptr %10, i64 %indvars.iv, i32 1
  store i64 -1, ptr %11, align 8
  %12 = load ptr, ptr %6, align 8
  %13 = getelementptr inbounds nuw %struct.acct_gather_data, ptr %12, i64 %indvars.iv, i32 2
  store i64 -1, ptr %13, align 8
  %14 = load ptr, ptr %6, align 8
  %15 = getelementptr inbounds nuw %struct.acct_gather_data, ptr %14, i64 %indvars.iv, i32 3
  store i64 -1, ptr %15, align 8
  %16 = load ptr, ptr %6, align 8
  %17 = getelementptr inbounds nuw %struct.acct_gather_data, ptr %16, i64 %indvars.iv, i32 4
  store i64 -1, ptr %17, align 8
  %indvars.iv.next = add nuw nsw i64 %indvars.iv, 1
  %18 = load i32, ptr %3, align 8
  %19 = sext i32 %18 to i64
  %20 = icmp slt i64 %indvars.iv.next, %19
  br i1 %20, label %7, label %._crit_edge, !llvm.loop !19
}